; Function Attrs: mustprogress uwtable
define noundef i32 @_ZN5Ipopt13TripletHelper17GetNumberEntries_ERKNS_9SumMatrixE(ptr noundef nonnull align 8 dereferenceable(128) %0) local_unnamed_addr #0 align 2 personality ptr @__gxx_personality_v0 {
  %2 = alloca double, align 8
  %3 = alloca %"class.Ipopt::SmartPtr.0", align 8
  %4 = tail call noundef i32 @_ZNK5Ipopt9SumMatrix6NTermsEv(ptr noundef nonnull align 8 dereferenceable(128) %0)
  %5 = icmp sgt i32 %4, 0
  br i1 %5, label %.lr.ph, label %._crit_edge

._crit_edge:                                      ; preds = %_ZN5Ipopt8SmartPtrIKNS_6MatrixEED2Ev.exit, %1
  %.0.lcssa = phi i32 [ 0, %1 ], [ %10, %_ZN5Ipopt8SmartPtrIKNS_6MatrixEED2Ev.exit ]
  ret i32 %.0.lcssa

.lr.ph:                                           ; preds = %1, %_ZN5Ipopt8SmartPtrIKNS_6MatrixEED2Ev.exit
  %.014 = phi i32 [ %10, %_ZN5Ipopt8SmartPtrIKNS_6MatrixEED2Ev.exit ], [ 0, %1 ]
  %.0913 = phi i32 [ %21, %_ZN5Ipopt8SmartPtrIKNS_6MatrixEED2Ev.exit ], [ 0, %1 ]
  call void @llvm.lifetime.start.p0(i64 8, ptr nonnull %2) #17
  call void @llvm.lifetime.start.p0(i64 8, ptr nonnull %3) #17
  store ptr null, ptr %3, align 8, !tbaa !36
  invoke void @_ZNK5Ipopt9SumMatrix7GetTermEiRdRNS_8SmartPtrIKNS_6MatrixEEE(ptr noundef nonnull align 8 dereferenceable(128) %0, i32 noundef %.0913, ptr noundef nonnull align 8 dereferenceable(8) %2, ptr noundef nonnull align 8 dereferenceable(8) %3)
          to label %6 unwind label %22

6:                                                ; preds = %.lr.ph
  %7 = load ptr, ptr %3, align 8, !tbaa !36
  %8 = invoke noundef i32 @_ZN5Ipopt13TripletHelper16GetNumberEntriesERKNS_6MatrixE(ptr noundef nonnull align 8 dereferenceable(69) %7)
          to label %9 unwind label %22

9:                                                ; preds = %6
  %10 = add nsw i32 %8, %.014
  %11 = load ptr, ptr %3, align 8, !tbaa !36
  %.not.i.i = icmp eq ptr %11, null
  br i1 %.not.i.i, label %_ZN5Ipopt8SmartPtrIKNS_6MatrixEED2Ev.exit, label %12

12:                                               ; preds = %9
  %13 = getelementptr inbounds nuw i8, ptr %11, i64 8
  %14 = load i32, ptr %13, align 8, !tbaa !42
  %15 = add nsw i32 %14, -1
  store i32 %15, ptr %13, align 8, !tbaa !42
  %16 = icmp eq i32 %15, 0
  br i1 %16, label %17, label %_ZN5Ipopt8SmartPtrIKNS_6MatrixEED2Ev.exit

17:                                               ; preds = %12
  %18 = load ptr, ptr %11, align 8, !tbaa !43
  %19 = getelementptr inbounds nuw i8, ptr %18, i64 8
  %20 = load ptr, ptr %19, align 8
  call void %20(ptr noundef nonnull align 8 dereferenceable(69) %11) #17
  br label %_ZN5Ipopt8SmartPtrIKNS_6MatrixEED2Ev.exit

_ZN5Ipopt8SmartPtrIKNS_6MatrixEED2Ev.exit:        ; preds = %9, %12, %17
  call void @llvm.lifetime.end.p0(i64 8, ptr nonnull %3) #17
  call void @llvm.lifetime.end.p0(i64 8, ptr nonnull %2) #17
  %21 = add nuw nsw i32 %.0913, 1
  %exitcond.not = icmp eq i32 %21, %4
  br i1 %exitcond.not, label %._crit_edge, label %.lr.ph, !llvm.loop !62

22:                                               ; preds = %6, %.lr.ph
  %23 = landingpad { ptr, i32 }
          cleanup
  %24 = load ptr, ptr %3, align 8, !tbaa !36
  %.not.i.i10 = icmp eq ptr %24, null
  br i1 %.not.i.i10, label %_ZN5Ipopt8SmartPtrIKNS_6MatrixEED2Ev.exit11, label %25

25:                                               ; preds = %22
  %26 = getelementptr inbounds nuw i8, ptr %24, i64 8
  %27 = load i32, ptr %26, align 8, !tbaa !42
  %28 = add nsw i32 %27, -1
  store i32 %28, ptr %26, align 8, !tbaa !42
  %29 = icmp eq i32 %28, 0
  br i1 %29, label %30, label %_ZN5Ipopt8SmartPtrIKNS_6MatrixEED2Ev.exit11

30:                                               ; preds = %25
  %31 = load ptr, ptr %24, align 8, !tbaa !43
  %32 = getelementptr inbounds nuw i8, ptr %31, i64 8
  %33 = load ptr, ptr %32, align 8
  call void %33(ptr noundef nonnull align 8 dereferenceable(69) %24) #17
  br label %_ZN5Ipopt8SmartPtrIKNS_6MatrixEED2Ev.exit11

_ZN5Ipopt8SmartPtrIKNS_6MatrixEED2Ev.exit11:      ; preds = %22, %25, %30
  call void @llvm.lifetime.end.p0(i64 8, ptr nonnull %3) #17
  call void @llvm.lifetime.end.p0(i64 8, ptr nonnull %2) #17
  resume { ptr, i32 } %23
}